; Function Attrs: mustprogress uwtable
define void @_ZN8proxygen13SessionHolder19onPingReplyReceivedEv(ptr nocapture noundef nonnull readonly align 8 dereferenceable(152) %this) unnamed_addr #3 align 2 {
entry:
  %originalSessionInfoCb_ = getelementptr inbounds i8, ptr %this, i64 144
  %0 = load ptr, ptr %originalSessionInfoCb_, align 8
  %tobool.not = icmp eq ptr %0, null
  br i1 %tobool.not, label %if.end, label %if.then

if.then:                                          ; preds = %entry
  %vtable = load ptr, ptr %0, align 8
  %vfn = getelementptr inbounds i8, ptr %vtable, i64 176
  %1 = load ptr, ptr %vfn, align 8
  tail call void %1(ptr noundef nonnull align 8 dereferenceable(8) %0)
  br label %if.end

if.end:                                           ; preds = %if.then, %entry
  ret void
}